
 Start  Stop   Length Name               Class

 00000H 002D5H 002D6H CSEG               CODE
 002D6H 002E5H 00010H _TEXT              CODE
 002F0H 00924H 00635H MEMORY             CODE
 00930H 0141FH 00AF0H DOS                CODE
 01420H 01728H 00309H DSEG               FARDATA
 01730H 0173FH 00010H INITEND            FAR_DATA
 01740H 0175FH 00020H INITSTART          FAR_DATA
 01760H 01777H 00018H DMEMORY            FAR_DATA
 01778H 0177DH 00006H _INIT_             INITDATA
 0177EH 01783H 00006H _EXIT_             EXITDATA
 01790H 017F6H 00067H _DATA              DATA
 017F7H 019EAH 001F4H _STACK             STACK

  Address         Publics by Name

 0093:0A9C       ATOI
 0093:04E6       BCDTODEC
 0093:0312       BUFFGETBYTE
 0093:03AF       BUFFSTOREBYTE
 0093:05F8       CHECKSWITCHES
 002F:0606       CLEANUP
 0179:0063       CURDTAPTR
 0179:0016       DBYTEBNUM
 0179:0015       DBYTEBUFF
 0179:0040       DESTMEMORY
 017F:01FB       ENDSTACK
 002F:01D3       EXECUTERTNS
 0093:0284       GETCHAR
 0093:0287       GETCHARRTN
 0093:0289       GETDOSCHAR
 0093:0098       GETFILESIZE
 0093:0024       GETFIRSTFILENAME
 0093:0049       GETNEXTFILENAME
 0093:057F       HEXTOASC
 0093:04A2       HEXTOBCD
 0093:0532       HEXTODEC
 002F:0000       INIT
 0179:0030       INPDATAPTR
 0179:001C       INPDATARTN
 0179:0034       INPDATASIZE
 0179:0018       INPFHAND
 0179:0028       INPSEEKRTN
 0093:0889       LOADFILE
 0093:082E       LOADMEM
 002F:03FE       MALLOC
 0176:0000       MEMBPTRS
 002F:0237       MEMCPY
 0093:0437       MEMGETBYTE
 0093:0376       MEMSTOREBYTE
 002F:0485       MFREE
 002F:04EF       MFREEALL
 002F:0353       MSHRINK
 0093:0405       OBUFFLUSH
 0179:0004       OLDVMODE
 0179:0005       OLDVMONITOR
 0179:0038       OUTPDATAPTR
 0179:0020       OUTPDATARTN
 0179:003C       OUTPDATASIZE
 0179:001A       OUTPFHAND
 0179:0024       OUTPFLUSHRTN
 0179:002C       OUTPSEEKRTN
 0093:06AA       PARSECL
 0093:0716       PARSELINE
 0176:000E       PSPCURPTR
 0176:000C       PSPSEG
 0093:0A24       READFILEL
 0093:0911       SAVEFILE
 0176:0002       SAVETPROG
 0179:0011       SBYTEBNUM
 0179:0010       SBYTEBUFF
 0179:0013       SENDBYTEBUFF
 002F:0624       SETCTRLCVECTOR
 0093:015B       SETDESTASDISK
 0093:0115       SETDESTASMEMORY
 0093:06F5       SETOTHERTERMS
 0093:00D8       SETSRCASDISK
 0093:0062       SETSRCASMEMORY
 0093:05D0       SETTOLOWER
 0093:05E4       SETTOUPPER
 002F:00FB       SHELLSORT
 002F:018D       SORTRTNS
 0093:07BA       STRCAT
 0093:07E2       STRCMP
 0093:07A7       STRCPY
 0093:02B0       STRIPEXT
 0093:02DA       STRIPFNAME
 0093:0818       STRLEN
 0176:0008       TEMPTOP
 0176:000A       TOPMEM
 0176:0004       TOPPROG
 0176:0006       TOPUSED
 0093:09AC       WRITEFILEL
 002F:05C3       _EXITTEXT
 002F:0000       _INSTALLSYSTEM

  Address         Publics by Value

 002F:0000       INIT
 002F:0000       _INSTALLSYSTEM
 002F:00FB       SHELLSORT
 002F:018D       SORTRTNS
 002F:01D3       EXECUTERTNS
 002F:0237       MEMCPY
 002F:0353       MSHRINK
 002F:03FE       MALLOC
 002F:0485       MFREE
 002F:04EF       MFREEALL
 002F:05C3       _EXITTEXT
 002F:0606       CLEANUP
 002F:0624       SETCTRLCVECTOR
 0093:0024       GETFIRSTFILENAME
 0093:0049       GETNEXTFILENAME
 0093:0062       SETSRCASMEMORY
 0093:0098       GETFILESIZE
 0093:00D8       SETSRCASDISK
 0093:0115       SETDESTASMEMORY
 0093:015B       SETDESTASDISK
 0093:0284       GETCHAR
 0093:0287       GETCHARRTN
 0093:0289       GETDOSCHAR
 0093:02B0       STRIPEXT
 0093:02DA       STRIPFNAME
 0093:0312       BUFFGETBYTE
 0093:0376       MEMSTOREBYTE
 0093:03AF       BUFFSTOREBYTE
 0093:0405       OBUFFLUSH
 0093:0437       MEMGETBYTE
 0093:04A2       HEXTOBCD
 0093:04E6       BCDTODEC
 0093:0532       HEXTODEC
 0093:057F       HEXTOASC
 0093:05D0       SETTOLOWER
 0093:05E4       SETTOUPPER
 0093:05F8       CHECKSWITCHES
 0093:06AA       PARSECL
 0093:06F5       SETOTHERTERMS
 0093:0716       PARSELINE
 0093:07A7       STRCPY
 0093:07BA       STRCAT
 0093:07E2       STRCMP
 0093:0818       STRLEN
 0093:082E       LOADMEM
 0093:0889       LOADFILE
 0093:0911       SAVEFILE
 0093:09AC       WRITEFILEL
 0093:0A24       READFILEL
 0093:0A9C       ATOI
 0176:0000       MEMBPTRS
 0176:0002       SAVETPROG
 0176:0004       TOPPROG
 0176:0006       TOPUSED
 0176:0008       TEMPTOP
 0176:000A       TOPMEM
 0176:000C       PSPSEG
 0176:000E       PSPCURPTR
 0179:0004       OLDVMODE
 0179:0005       OLDVMONITOR
 0179:0010       SBYTEBUFF
 0179:0011       SBYTEBNUM
 0179:0013       SENDBYTEBUFF
 0179:0015       DBYTEBUFF
 0179:0016       DBYTEBNUM
 0179:0018       INPFHAND
 0179:001A       OUTPFHAND
 0179:001C       INPDATARTN
 0179:0020       OUTPDATARTN
 0179:0024       OUTPFLUSHRTN
 0179:0028       INPSEEKRTN
 0179:002C       OUTPSEEKRTN
 0179:0030       INPDATAPTR
 0179:0034       INPDATASIZE
 0179:0038       OUTPDATAPTR
 0179:003C       OUTPDATASIZE
 0179:0040       DESTMEMORY
 0179:0063       CURDTAPTR
 017F:01FB       ENDSTACK

Line numbers for tile.obj(TILE.ASM) segment CSEG

   136 0000:0000   138 0000:0005   139 0000:0007   140 0000:000A
   141 0000:000C   142 0000:000F   144 0000:0011   145 0000:0016
   147 0000:001B   148 0000:001E   149 0000:0020   150 0000:0023
   151 0000:0025   153 0000:0028   154 0000:002A   155 0000:002D
   156 0000:0032   157 0000:0035   159 0000:003A   160 0000:003D
   161 0000:0040   163 0000:0045   164 0000:004A   166 0000:004C
   167 0000:0051   168 0000:0054   169 0000:0056   171 0000:0059
   172 0000:005E   174 0000:0060   175 0000:0065   178 0000:0068
   179 0000:006D   180 0000:006F   183 0000:0072   184 0000:0075
   185 0000:0077   186 0000:007A   187 0000:007D   189 0000:0080
   190 0000:0082   191 0000:0084   192 0000:0087   193 0000:008A
   195 0000:008F   196 0000:0094   198 0000:0099   199 0000:009B
   200 0000:009D   201 0000:00A0   202 0000:00A3   206 0000:00A8
   207 0000:00AB   208 0000:00AE   209 0000:00B3   210 0000:00B5
   211 0000:00BA   212 0000:00BD   213 0000:00BF   214 0000:00C2
   215 0000:00C4   216 0000:00C6   217 0000:00C9   218 0000:00CC
   219 0000:00CF   220 0000:00D2   221 0000:00D7   222 0000:00DA
   223 0000:00DC   224 0000:00DF   225 0000:00E2   227 0000:00E5
   228 0000:00E7   229 0000:00E9   230 0000:00EB   231 0000:00EE
   232 0000:00F0   233 0000:00F5   238 0000:00FA   239 0000:00FD
   241 0000:0100   242 0000:0101   243 0000:0106   244 0000:0107
   245 0000:010C   246 0000:010F   248 0000:0112   249 0000:0115
   250 0000:0118   252 0000:011A   254 0000:011D   255 0000:0123
   257 0000:0128   258 0000:012B   259 0000:012D   260 0000:0130
   261 0000:0133   262 0000:0136   263 0000:013B   264 0000:013E
   265 0000:0141   268 0000:0143   269 0000:0146   271 0000:0148
   272 0000:014B   274 0000:0162   275 0000:0166   276 0000:016B
   277 0000:0170   280 0000:0172   281 0000:0175   283 0000:0177
   284 0000:0179   285 0000:017F   286 0000:0184   287 0000:0187
   289 0000:0189   290 0000:018B   291 0000:018D   292 0000:018F
   293 0000:0191   298 0000:0194   299 0000:019A   300 0000:01A0
   301 0000:01A1   302 0000:01A3   303 0000:01A4   304 0000:01A6
   305 0000:01A8   306 0000:01AA   307 0000:01AD   308 0000:01B0
   309 0000:01B5   310 0000:01BA   311 0000:01BC   312 0000:01CC
   313 0000:01CE   314 0000:01D0   315 0000:01D2   316 0000:01D5
   317 0000:01D7   320 0000:01D8   322 0000:01DE   323 0000:01E1
   324 0000:01E7   325 0000:01ED   327 0000:01EE   328 0000:01F4
   329 0000:01FA   330 0000:0200   332 0000:0201   333 0000:0207
   334 0000:020D   335 0000:0213   337 0000:0214   338 0000:0215
   339 0000:0217   340 0000:0218   341 0000:021A   342 0000:021C
   343 0000:021E   344 0000:0223   345 0000:0226   346 0000:022B
   347 0000:022E   348 0000:0231   349 0000:0236   350 0000:023B
   351 0000:023E   352 0000:023F   353 0000:0241   354 0000:0242
   355 0000:0243   356 0000:0245   357 0000:0246   358 0000:0247
   359 0000:0249   360 0000:024A   361 0000:024B   362 0000:024D
   363 0000:024E   364 0000:024F   365 0000:0250   366 0000:0251
   367 0000:0253   368 0000:0254   369 0000:0255   370 0000:0256
   371 0000:0258   372 0000:0259   373 0000:025A   374 0000:025C
   375 0000:025D   376 0000:0263   377 0000:0265   378 0000:026B
   379 0000:026D   380 0000:0270   381 0000:0273   383 0000:0276
   385 0000:0277   386 0000:027A   387 0000:027C   388 0000:027F
   390 0000:0282   391 0000:0287   392 0000:028C   394 0000:028F
   395 0000:0293   396 0000:0295   397 0000:0296   399 0000:029B
   412 0000:029E   413 0000:029F   414 0000:02A0   416 0000:02A2
   417 0000:02A3   418 0000:02A5   419 0000:02A7   420 0000:02AC
   421 0000:02B1   422 0000:02B3   423 0000:02B5   424 0000:02B7
   425 0000:02B9   426 0000:02BB   428 0000:02BD   429 0000:02BE
   430 0000:02C0   431 0000:02C3   432 0000:02C5   433 0000:02C6
   434 0000:02C8   435 0000:02CA   436 0000:02CC   437 0000:02CE
   439 0000:02D0   440 0000:02D1   442 0000:02D3   443 0000:02D4
   444 0000:02D5
Line numbers for e:\graphics\object.lib(MEMORY) segment MEMORY

   105 002F:0000   107 002F:0008   108 002F:000A   111 002F:000C
   112 002F:000F   113 002F:0011   114 002F:0013   115 002F:0015
   116 002F:0019   117 002F:001C   118 002F:001E   119 002F:0020
   120 002F:0023   121 002F:0028   122 002F:002D   125 002F:0032
   126 002F:0034   127 002F:0036   129 002F:0038   130 002F:003B
   131 002F:003D   132 002F:003F   133 002F:0044   135 002F:0046
   136 002F:0048   137 002F:004B   138 002F:004D   139 002F:004F
   140 002F:0051   141 002F:0054   143 002F:0056   145 002F:0058
   146 002F:005B   148 002F:005D   149 002F:0060   150 002F:0063
   151 002F:0067   152 002F:006B   153 002F:006F   155 002F:0073
   156 002F:0076   157 002F:0078   158 002F:007C   159 002F:007F
   161 002F:0082   162 002F:0086   164 002F:008A   165 002F:008F
   167 002F:0093   168 002F:0095   169 002F:0097   170 002F:009A
   171 002F:009C   172 002F:009F   174 002F:00A1   175 002F:00A4
   176 002F:00A6   179 002F:00A8   180 002F:00AB   181 002F:00AD
   182 002F:00B0   183 002F:00B3   184 002F:00B8   185 002F:00BB
   186 002F:00C0   188 002F:00C5   190 002F:00CD   202 002F:00CE
   203 002F:00D6   204 002F:00D9   205 002F:00DB   206 002F:00DE
   207 002F:00E1   208 002F:00E6   209 002F:00E8   210 002F:00F0
   230 002F:00FB   231 002F:0103   232 002F:0108   233 002F:010D
   234 002F:0112   235 002F:0117   236 002F:0119   238 002F:011E
   239 002F:0120   241 002F:0123   242 002F:0125   244 002F:0128
   245 002F:012A   247 002F:012D   249 002F:012E   251 002F:0130
   252 002F:0132   253 002F:0137   254 002F:013C   256 002F:013E
   257 002F:0140   258 002F:0142   259 002F:0147   260 002F:014C
   262 002F:014E   264 002F:014F   266 002F:0154   267 002F:0156
   273 002F:015B   274 002F:015C   276 002F:0161   277 002F:0163
   278 002F:0166   279 002F:0168   280 002F:0169   281 002F:016A
   282 002F:016C   285 002F:016D   286 002F:016F   288 002F:0171
   290 002F:0172   291 002F:0174   294 002F:0176   295 002F:0178
   297 002F:017A   298 002F:0182   315 002F:0183   316 002F:0187
   317 002F:018A   318 002F:018C   334 002F:018D   336 002F:0195
   337 002F:0197   338 002F:0199   340 002F:019B   341 002F:019D
   342 002F:01A2   343 002F:01A5   344 002F:01AA   345 002F:01AB
   346 002F:01AE   348 002F:01B0   349 002F:01B2   351 002F:01B7
   352 002F:01B9   353 002F:01BC   354 002F:01BF   355 002F:01C2
   357 002F:01C6   358 002F:01CE   377 002F:01D3   378 002F:01D4
   379 002F:01D5   380 002F:01D6   381 002F:01D7   382 002F:01D8
   383 002F:01D9   385 002F:01DA   386 002F:01DC   387 002F:01DE
   389 002F:01E0   390 002F:01E2   391 002F:01E7   392 002F:01EA
   393 002F:01EF   394 002F:01F2   395 002F:01F5   396 002F:01FA
   397 002F:01FC   398 002F:01FE   400 002F:0203   401 002F:0204
   402 002F:0205   403 002F:0206   404 002F:0207   405 002F:0208
   406 002F:0209   407 002F:020A   408 002F:020D   409 002F:020F
   410 002F:0211   411 002F:0213   412 002F:0214   413 002F:0215
   414 002F:0219   415 002F:021A   416 002F:021B   417 002F:021C
   418 002F:021D   419 002F:021E   420 002F:021F   421 002F:0220
   422 002F:0221   423 002F:0222   424 002F:0224   426 002F:0229
   427 002F:022C   429 002F:022E   431 002F:022F   432 002F:0230
   433 002F:0231   434 002F:0232   435 002F:0233   436 002F:0234
   437 002F:0235   438 002F:0236   451 002F:0237   453 002F:023F
   454 002F:0241   455 002F:0243   456 002F:0245   457 002F:0247
   458 002F:0249   459 002F:0260   461 002F:0277   462 002F:0278
   463 002F:027A   464 002F:027F   465 002F:0284   466 002F:0286
   467 002F:028B   468 002F:0290   470 002F:0293   471 002F:0295
   472 002F:0297   473 002F:0299   474 002F:029B   476 002F:029E
   477 002F:02A0   478 002F:02A2   479 002F:02A5   480 002F:02A8
   481 002F:02A9   482 002F:02AB   483 002F:02AD   484 002F:02AE
   485 002F:02AF   486 002F:02B1   487 002F:02B3   489 002F:02B4
   490 002F:02BC   501 002F:02BD   502 002F:02BE   503 002F:02BF
   504 002F:02C0   505 002F:02C1   507 002F:02C2   508 002F:02C4
   509 002F:02C7   510 002F:02C9   511 002F:02CC   512 002F:02D1
   513 002F:02D4   514 002F:02D6   515 002F:02D8   516 002F:02DB
   517 002F:02DE   518 002F:02E0   519 002F:02E2   520 002F:02E6
   521 002F:02E9   522 002F:02EC   523 002F:02EF   525 002F:02F2
   526 002F:02F4   527 002F:02F5   528 002F:02F6   529 002F:02F7
   530 002F:02F8   531 002F:02F9   542 002F:02FA   543 002F:02FB
   544 002F:02FC   545 002F:02FD   546 002F:02FE   548 002F:02FF
   549 002F:0301   550 002F:0303   551 002F:0306   552 002F:0309
   553 002F:030B   554 002F:030F   555 002F:0314   556 002F:0317
   557 002F:031A   558 002F:031C   559 002F:031F   560 002F:0322
   561 002F:0325   562 002F:0327   564 002F:032A   565 002F:032C
   566 002F:032F   567 002F:0332   568 002F:0337   569 002F:0339
   570 002F:033D   571 002F:0342   572 002F:0345   573 002F:0348
   574 002F:034A   576 002F:034D   577 002F:034E   578 002F:034F
   579 002F:0350   580 002F:0351   581 002F:0352   595 002F:0353
   596 002F:0354   597 002F:0355   599 002F:0356   600 002F:0357
   601 002F:0358   602 002F:035A   604 002F:035C   605 002F:035F
   606 002F:0363   608 002F:0368   609 002F:036B   611 002F:0370
   612 002F:0373   613 002F:0376   614 002F:0378   615 002F:037B
   616 002F:037D   617 002F:0381   619 002F:0384   620 002F:0388
   621 002F:038D   623 002F:0390   624 002F:0393   625 002F:0394
   626 002F:0395   627 002F:0396   628 002F:0397   640 002F:0398
   641 002F:0399   642 002F:039A   643 002F:039B   644 002F:039C
   646 002F:039D   648 002F:03A0   649 002F:03A4   650 002F:03A7
   652 002F:03AC   653 002F:03B0   655 002F:03B2   656 002F:03B4
   657 002F:03B8   658 002F:03BD   659 002F:03C1   660 002F:03C6
   661 002F:03C9   662 002F:03CE   663 002F:03D3   664 002F:03D5
   665 002F:03D8   666 002F:03DB   667 002F:03E0   668 002F:03E3
   670 002F:03E5   671 002F:03E9   672 002F:03EB   673 002F:03EC
   675 002F:03EF   676 002F:03F2   678 002F:03F4   679 002F:03F7
   680 002F:03F8   681 002F:03F9   682 002F:03FA   683 002F:03FB
   684 002F:03FC   685 002F:03FD   698 002F:03FE   699 002F:03FF
   700 002F:0400   701 002F:0401   703 002F:0402   704 002F:0404
   705 002F:0407   707 002F:0409   708 002F:040A   710 002F:040F
   711 002F:0412   713 002F:0417   714 002F:041A   715 002F:041C
   716 002F:041F   717 002F:0423   718 002F:0426   719 002F:042B
   720 002F:042D   721 002F:0432   722 002F:0435   724 002F:0438
   725 002F:043C   726 002F:043E   727 002F:0442   728 002F:0444
   729 002F:0448   730 002F:044D   732 002F:0451   733 002F:0455
   734 002F:0458   735 002F:045A   736 002F:045C   737 002F:045F
   738 002F:0464   739 002F:0466   740 002F:046A   742 002F:046D
   743 002F:046F   744 002F:0473   745 002F:0476   746 002F:0479
   748 002F:047C   749 002F:047F   750 002F:0480   751 002F:0481
   752 002F:0482   753 002F:0483   754 002F:0484   767 002F:0485
   768 002F:0486   769 002F:0487   771 002F:0488   772 002F:0489
   774 002F:048B   775 002F:048D   776 002F:0490   778 002F:0492
   779 002F:0496   781 002F:049B   782 002F:049E   783 002F:04A1
   784 002F:04A4   785 002F:04A9   786 002F:04AB   787 002F:04AF
   788 002F:04B1   790 002F:04B5   791 002F:04B8   792 002F:04BA
   793 002F:04BD   794 002F:04C1   795 002F:04C3   797 002F:04C6
   798 002F:04CA   799 002F:04CF   800 002F:04D3   801 002F:04D6
   802 002F:04D8   804 002F:04DB   805 002F:04DF   806 002F:04E4
   808 002F:04E7   809 002F:04EA   810 002F:04EB   811 002F:04EC
   812 002F:04ED   814 002F:04EE   824 002F:04EF   826 002F:04F0
   827 002F:04F3   828 002F:04F5   829 002F:04FB   830 002F:0500
   831 002F:0505   832 002F:0508   834 002F:050B   835 002F:050E
   837 002F:0511   838 002F:0512   839 002F:0513   851 002F:0514
   852 002F:0515   854 002F:051D   855 002F:0520   856 002F:0522
   857 002F:0527   858 002F:052C   859 002F:0531   861 002F:0536
   867 002F:053A   868 002F:0542   871 002F:0543   872 002F:0544
   882 002F:0545   883 002F:0546   885 002F:054E   886 002F:0550
   888 002F:0552   889 002F:0555   890 002F:0557   891 002F:055B
   892 002F:055F   893 002F:0560   895 002F:0561   896 002F:0565
   898 002F:056A   899 002F:056D   900 002F:056F   901 002F:0574
   902 002F:0579   903 002F:057E   905 002F:0583   908 002F:0587
   909 002F:058A   910 002F:058C   912 002F:0590   913 002F:0595
   914 002F:059A   915 002F:059E   916 002F:05A2   917 002F:05A4
   918 002F:05A6   919 002F:05AA   921 002F:05AE   922 002F:05AF
   923 002F:05B0   924 002F:05B2   925 002F:05B4   926 002F:05BC
   927 002F:05BD   928 002F:05BE   941 002F:05C3   942 002F:05C4
   943 002F:05C6   955 002F:05C8   956 002F:05C9   957 002F:05CA
   958 002F:05CD   959 002F:05CF   960 002F:05D3   961 002F:05D6
   962 002F:05D7   963 002F:05D8   975 002F:05D9   976 002F:05DA
   977 002F:05DB   978 002F:05DC   981 002F:05DD   982 002F:05E0
   983 002F:05E2   984 002F:05E5   985 002F:05E7   986 002F:05E9
   987 002F:05ED   988 002F:05EF   989 002F:05F1   990 002F:05F5
   991 002F:05FA   992 002F:05FC   993 002F:05FF   995 002F:0601
   996 002F:0602   997 002F:0603   998 002F:0604   999 002F:0605
  1011 002F:0606  1012 002F:0607  1013 002F:0608  1014 002F:0609
  1015 002F:060A  1016 002F:060B  1017 002F:060C  1018 002F:060F
  1019 002F:0611  1020 002F:0614  1021 002F:0617  1022 002F:0619
  1023 002F:061D  1024 002F:061E  1025 002F:061F  1026 002F:0620
  1027 002F:0621  1028 002F:0622  1029 002F:0623  1040 002F:0624
  1041 002F:0625  1042 002F:0626  1043 002F:0629  1044 002F:062B
  1045 002F:062F  1046 002F:0632  1047 002F:0633  1048 002F:0634
Line numbers for e:\graphics\object.lib(DOS) segment DOS

    81 0093:0000    83 0093:0008    84 0093:000A    86 0093:000C
    87 0093:000F    88 0093:0011    89 0093:0015    91 0093:0019
    92 0093:0021    93 0093:0023   108 0093:0024   109 0093:0025
   110 0093:0026   111 0093:0027   113 0093:0028   114 0093:002A
   115 0093:002C   116 0093:002E   118 0093:0030   119 0093:0032
   120 0093:0034   121 0093:0036   122 0093:003B   123 0093:003D
   125 0093:003F   126 0093:0042   128 0093:0044   129 0093:0045
   130 0093:0046   131 0093:0047   132 0093:0048   145 0093:0049
   147 0093:004A   148 0093:004C   150 0093:004E   151 0093:0050
   152 0093:0052   153 0093:0057   154 0093:0059   156 0093:005B
   157 0093:005D   159 0093:0060   160 0093:0061   171 0093:0062
   173 0093:006A   174 0093:006D   175 0093:006F   176 0093:0073
   177 0093:0076   178 0093:0079   179 0093:007D   180 0093:0080
   181 0093:0084   182 0093:0088   183 0093:008B   185 0093:008F
   187 0093:0097   197 0093:0098   198 0093:0099   199 0093:009A
   200 0093:009B   202 0093:009C   203 0093:009E   204 0093:00A0
   205 0093:00A2   206 0093:00A4   207 0093:00A6   208 0093:00A8
   209 0093:00AD   210 0093:00AE   211 0093:00AF   212 0093:00B1
   213 0093:00B3   214 0093:00B5   215 0093:00B7   216 0093:00B9
   217 0093:00BB   218 0093:00BD   219 0093:00BE   220 0093:00BF
   221 0093:00C4   222 0093:00C6   223 0093:00C8   224 0093:00CA
   225 0093:00CF   226 0093:00D1   228 0093:00D3   229 0093:00D4
   230 0093:00D5   231 0093:00D6   232 0093:00D7   243 0093:00D8
   245 0093:00E0   246 0093:00E3   247 0093:00E5   248 0093:00E8
   249 0093:00EB   250 0093:00EF   251 0093:00F2   252 0093:00F6
   253 0093:00FA   254 0093:00FD   255 0093:0101   256 0093:0104
   257 0093:0108   259 0093:010C   261 0093:0114   272 0093:0115
   274 0093:011D   275 0093:0120   276 0093:0122   277 0093:0126
   278 0093:0129   279 0093:012C   280 0093:0130   281 0093:0133
   282 0093:0137   283 0093:013B   284 0093:013E   285 0093:0142
   286 0093:0146   287 0093:0149   288 0093:014D   290 0093:0152
   292 0093:015A   303 0093:015B   305 0093:0163   306 0093:0166
   307 0093:0168   308 0093:016B   309 0093:016E   310 0093:0172
   311 0093:0175   312 0093:0179   313 0093:017D   314 0093:0180
   315 0093:0184   316 0093:0188   317 0093:018B   318 0093:018F
   319 0093:0192   320 0093:0196   322 0093:019B   324 0093:01A3
   335 0093:01A4   337 0093:01AC   338 0093:01AF   339 0093:01B1
   340 0093:01B3   341 0093:01B7   342 0093:01BA   343 0093:01BC
   344 0093:01BE   345 0093:01C1   347 0093:01C5   348 0093:01CD
   359 0093:01CE   361 0093:01D6   362 0093:01D9   363 0093:01DB
   364 0093:01DD   365 0093:01E1   366 0093:01E4   367 0093:01E6
   368 0093:01E8   369 0093:01EB   371 0093:01EF   372 0093:01F7
   382 0093:01F8   384 0093:0200   385 0093:0203   386 0093:0205
   387 0093:0208   388 0093:020A   389 0093:020E   390 0093:0210
   391 0093:0213   392 0093:0215   393 0093:0217   394 0093:0219
   395 0093:021D   396 0093:0222   397 0093:0226   398 0093:022B
   399 0093:022F   400 0093:0230   402 0093:0233   403 0093:0235
   404 0093:0239   405 0093:023D   406 0093:0240   407 0093:0242
   408 0093:0244   409 0093:0248   410 0093:024C   411 0093:0250
   412 0093:0252   413 0093:0254   415 0093:0256   416 0093:025E
   426 0093:025F   428 0093:0267   429 0093:026C   430 0093:026F
   431 0093:0271   432 0093:0275   433 0093:0277   434 0093:0279
   436 0093:027B   437 0093:0283   447 0093:0284   452 0093:0289
   453 0093:028A   454 0093:028C   455 0093:028E   456 0093:0290
   457 0093:0292   458 0093:0297   459 0093:0299   460 0093:029B
   461 0093:029D   462 0093:029F   463 0093:02A1   464 0093:02A4
   465 0093:02A6   466 0093:02AA   468 0093:02AE   469 0093:02AF
   482 0093:02B0   484 0093:02B8   485 0093:02BD   486 0093:02BF
   487 0093:02C0   489 0093:02C1   490 0093:02C3   491 0093:02C5
   492 0093:02C6   493 0093:02CB   494 0093:02CC   495 0093:02CE
   496 0093:02CF   498 0093:02D0   500 0093:02D1   501 0093:02D9
   512 0093:02DA   514 0093:02E2   515 0093:02E7   516 0093:02E9
   517 0093:02EA   519 0093:02EB   520 0093:02ED   521 0093:02EF
   522 0093:02F2   523 0093:02F7   524 0093:02F8   525 0093:02FD
   526 0093:02FF   527 0093:0300   529 0093:0303   531 0093:0304
   532 0093:0306   533 0093:0307   535 0093:0308   537 0093:0309
   538 0093:0311   549 0093:0312   551 0093:031A   552 0093:031B
   553 0093:031E   554 0093:0320   555 0093:0324   556 0093:0327
   557 0093:0329   558 0093:032E   559 0093:032F   560 0093:0332
   561 0093:0335   562 0093:0337   563 0093:033B   564 0093:033E
   565 0093:0340   566 0093:0341   567 0093:0343   568 0093:0345
   569 0093:034A   570 0093:034C   571 0093:034E   572 0093:0353
   573 0093:0356   574 0093:0359   576 0093:035C   577 0093:035D
   578 0093:035E   580 0093:0361   581 0093:0364   582 0093:0365
   583 0093:0369   584 0093:036A   585 0093:036C   587 0093:036D
   588 0093:0375   600 0093:0376   601 0093:0377   602 0093:0378
   603 0093:0379   604 0093:037C   605 0093:037E   607 0093:0382
   608 0093:0386   609 0093:038B   611 0093:038F   612 0093:0390
   613 0093:0393   614 0093:0398   615 0093:039A   616 0093:039E
   617 0093:03A0   619 0093:03A2   620 0093:03A3   621 0093:03A7
   622 0093:03AB   623 0093:03AC   624 0093:03AD   625 0093:03AE
   636 0093:03AF   638 0093:03B7   639 0093:03BA   640 0093:03BC
   641 0093:03BE   642 0093:03C2   643 0093:03C6   644 0093:03CB
   645 0093:03CC   646 0093:03CD   647 0093:03D0   648 0093:03D3
   649 0093:03D5   650 0093:03D9   651 0093:03DC   652 0093:03DE
   653 0093:03DF   654 0093:03E1   655 0093:03E3   656 0093:03E4
   658 0093:03E9   659 0093:03EA   660 0093:03EE   661 0093:03F2
   662 0093:03F7   664 0093:03FB   666 0093:03FC   667 0093:0404
   677 0093:0405   678 0093:040D   679 0093:0410   680 0093:0412
   681 0093:0416   682 0093:041A   683 0093:041F   684 0093:0422
   685 0093:0426   686 0093:042A   687 0093:042C   689 0093:042E
   694 0093:0436   707 0093:0437   708 0093:0438   709 0093:0439
   710 0093:043A   711 0093:043D   712 0093:043F   713 0093:0444
   715 0093:0449   716 0093:044F   717 0093:0454   718 0093:045A
   719 0093:045F   720 0093:0462   721 0093:0463   723 0093:0466
   724 0093:0467   725 0093:046A   726 0093:046F   727 0093:0471
   728 0093:0475   729 0093:0477   731 0093:0479   732 0093:047E
   733 0093:0483   734 0093:0488   735 0093:048D   736 0093:0493
   737 0093:0498   739 0093:049D   741 0093:049E   742 0093:049F
   743 0093:04A0   744 0093:04A1   757 0093:04A2   758 0093:04A3
   759 0093:04A4   760 0093:04A5   761 0093:04A6   762 0093:04A7
   764 0093:04A8   765 0093:04AA   766 0093:04AC   767 0093:04AF
   768 0093:04B1   770 0093:04B4   772 0093:04B7   773 0093:04BA
   774 0093:04BC   775 0093:04C1   776 0093:04C3   778 0093:04C6
   779 0093:04C8   781 0093:04CB   782 0093:04CD   783 0093:04CF
   784 0093:04D1   785 0093:04D3   786 0093:04D5   787 0093:04D7
   788 0093:04D9   790 0093:04DB   793 0093:04DD   794 0093:04DF
   795 0093:04E0   796 0093:04E1   797 0093:04E2   798 0093:04E3
   799 0093:04E4   800 0093:04E5   812 0093:04E6   813 0093:04E7
   814 0093:04E8   815 0093:04E9   816 0093:04EA   818 0093:04EB
   819 0093:04ED   820 0093:04EF   821 0093:04F1   822 0093:04F5
   823 0093:04FA   824 0093:0501   825 0093:0503   827 0093:0506
   828 0093:0508   829 0093:050A   830 0093:050C   831 0093:050E
   832 0093:0510   833 0093:0512   834 0093:0515   835 0093:051A
   836 0093:051C   838 0093:0521   839 0093:0524   840 0093:0526
   842 0093:0527   843 0093:0529   844 0093:052B   846 0093:052C
   847 0093:052D   848 0093:052E   849 0093:052F   850 0093:0530
   851 0093:0531   863 0093:0532   865 0093:053A   866 0093:053C
   867 0093:053E   868 0093:0541   869 0093:0543   870 0093:0546
   871 0093:054A   872 0093:054F   873 0093:0551   875 0093:0554
   876 0093:0557   877 0093:0559   878 0093:055E   879 0093:0560
   881 0093:0563   882 0093:0565   884 0093:0568   885 0093:056A
   886 0093:056C   887 0093:056E   888 0093:0570   890 0093:0571
   891 0093:0573   892 0093:0575   894 0093:0576   895 0093:057E
   908 0093:057F   910 0093:0587   911 0093:058A   912 0093:058C
   913 0093:058E   914 0093:0590   915 0093:0592   916 0093:0595
   917 0093:0598   918 0093:059B   920 0093:059D   921 0093:059F
   922 0093:05A1   923 0093:05A4   924 0093:05A9   925 0093:05AC
   927 0093:05B1   928 0093:05B4   929 0093:05B5   931 0093:05B6
   932 0093:05B7   933 0093:05B9   934 0093:05BC   935 0093:05C1
   936 0093:05C3   938 0093:05C4   939 0093:05C6   941 0093:05C7
   942 0093:05CF   953 0093:05D0   954 0093:05D1   955 0093:05D2
   956 0093:05D5   957 0093:05D7   958 0093:05DC   959 0093:05E1
   960 0093:05E2   961 0093:05E3   972 0093:05E4   973 0093:05E5
   974 0093:05E6   975 0093:05E9   976 0093:05EB   977 0093:05F0
   978 0093:05F5   979 0093:05F6   980 0093:05F7   996 0093:05F8
   997 0093:05F9   999 0093:0601  1000 0093:0603  1001 0093:0606
  1002 0093:0608  1003 0093:060C  1005 0093:0610  1006 0093:0612
  1008 0093:0614  1009 0093:0616  1010 0093:0618  1011 0093:061D
  1012 0093:061F  1013 0093:0620  1015 0093:0625  1016 0093:0629
  1017 0093:062E  1018 0093:062F  1020 0093:0634  1021 0093:0635
  1022 0093:0637  1023 0093:0639  1024 0093:063A  1026 0093:063F
  1027 0093:0641  1028 0093:0643  1030 0093:0645  1031 0093:0647
  1032 0093:0649  1033 0093:064B  1034 0093:0650  1035 0093:0652
  1036 0093:0654  1037 0093:0656  1039 0093:0658  1040 0093:065A
  1041 0093:065F  1042 0093:0660  1043 0093:0664  1044 0093:0665
  1045 0093:0666  1046 0093:0667  1047 0093:0669  1048 0093:066C
  1049 0093:0671  1050 0093:0674  1052 0093:0679  1053 0093:067B
  1054 0093:067D  1056 0093:067F  1057 0093:0681  1058 0093:0686
  1059 0093:0687  1060 0093:068B  1061 0093:068C  1062 0093:068D
  1063 0093:068E  1064 0093:0690  1066 0093:0692  1067 0093:0694
  1068 0093:0695  1070 0093:069A  1071 0093:069B  1072 0093:069E
  1074 0093:06A0  1075 0093:06A8  1076 0093:06A9  1090 0093:06AA
  1091 0093:06AB  1092 0093:06AC  1093 0093:06AD  1095 0093:06AE
  1096 0093:06B1  1097 0093:06B3  1098 0093:06B7  1099 0093:06BA
  1100 0093:06BC  1101 0093:06BF  1102 0093:06C1  1103 0093:06C3
  1104 0093:06C7  1105 0093:06C9  1106 0093:06CE  1108 0093:06D3
  1109 0093:06D6  1110 0093:06D7  1112 0093:06DA  1113 0093:06DF
  1114 0093:06E4  1115 0093:06E7  1116 0093:06E9  1117 0093:06ED
  1118 0093:06EF  1120 0093:06F0  1121 0093:06F1  1122 0093:06F2
  1123 0093:06F3  1124 0093:06F4  1137 0093:06F5  1139 0093:06FD
  1140 0093:0700  1141 0093:0702  1142 0093:0705  1143 0093:0709
  1145 0093:070D  1146 0093:0715  1163 0093:0716  1164 0093:0717
  1165 0093:0718  1166 0093:0719  1167 0093:071A  1168 0093:071C
  1169 0093:071E  1170 0093:0721  1171 0093:0723  1172 0093:0725
  1174 0093:072C  1175 0093:072D  1176 0093:072F  1177 0093:0734
  1178 0093:0736  1179 0093:073B  1180 0093:073D  1181 0093:0742
  1182 0093:0744  1183 0093:0749  1184 0093:074C  1185 0093:074E
  1186 0093:0753  1187 0093:0756  1188 0093:075B  1189 0093:0760
  1190 0093:0762  1192 0093:0767  1193 0093:076A  1194 0093:076F
  1195 0093:0771  1197 0093:0772  1198 0093:0774  1199 0093:0775
  1200 0093:0778  1202 0093:077D  1203 0093:0780  1204 0093:0781
  1206 0093:0784  1207 0093:0787  1208 0093:078C  1210 0093:0790
  1211 0093:0793  1213 0093:0795  1214 0093:0796  1215 0093:0798
  1216 0093:079A  1217 0093:079B  1218 0093:079E  1219 0093:079F
  1220 0093:07A1  1222 0093:07A2  1223 0093:07A3  1224 0093:07A4
  1225 0093:07A5  1226 0093:07A6  1236 0093:07A7  1237 0093:07AF
  1238 0093:07B1  1239 0093:07B3  1240 0093:07B5  1241 0093:07B7
  1249 0093:07BA  1251 0093:07C2  1252 0093:07C4  1254 0093:07C6
  1256 0093:07CB  1258 0093:07CE  1259 0093:07CF  1260 0093:07D0
  1261 0093:07D2  1262 0093:07D7  1264 0093:07D9  1266 0093:07E1
  1283 0093:07E2  1284 0093:07E3  1285 0093:07E4  1286 0093:07E5
  1287 0093:07E6  1289 0093:07E7  1290 0093:07E9  1292 0093:07EB
  1293 0093:07F0  1294 0093:07F2  1295 0093:07F4  1296 0093:07F6
  1298 0093:07F7  1299 0093:07F9  1300 0093:07FB  1301 0093:0800
  1302 0093:0803  1303 0093:0806  1304 0093:080A  1305 0093:080F
  1307 0093:0812  1308 0093:0813  1309 0093:0814  1310 0093:0815
  1311 0093:0816  1312 0093:0817  1324 0093:0818  1326 0093:0819
  1327 0093:081B  1328 0093:081D  1329 0093:0820  1330 0093:0822
  1331 0093:0824  1332 0093:0826  1333 0093:0829  1335 0093:082B
  1336 0093:082C  1337 0093:082D  1353 0093:082E  1355 0093:082F
  1356 0093:0831  1357 0093:0833  1358 0093:0835  1359 0093:0838
  1361 0093:083A  1362 0093:083F  1363 0093:0842  1364 0093:0847
  1366 0093:084A  1367 0093:084B  1368 0093:084D  1370 0093:0850
  1371 0093:0852  1373 0093:0854  1374 0093:0858  1376 0093:085C
  1378 0093:085F  1379 0093:086F  1381 0093:0874  1382 0093:0876
  1383 0093:0878  1384 0093:0879  1385 0093:087C  1388 0093:0883
  1389 0093:0884  1390 0093:0887  1391 0093:0888  1406 0093:0889
  1407 0093:088B  1409 0093:088D  1410 0093:088E  1411 0093:088F
  1412 0093:0890  1413 0093:0891  1414 0093:0892  1416 0093:0893
  1418 0093:0895  1419 0093:0897  1420 0093:0899  1421 0093:089B
  1422 0093:08A0  1423 0093:08A2  1425 0093:08A5  1426 0093:08A6
  1427 0093:08A7  1428 0093:08AA  1429 0093:08AF  1430 0093:08B2
  1431 0093:08B4  1432 0093:08B6  1433 0093:08B8  1435 0093:08BB
  1436 0093:08BD  1437 0093:08BF  1438 0093:08C2  1440 0093:08C4
  1441 0093:08C6  1442 0093:08C8  1444 0093:08CA  1445 0093:08CC
  1446 0093:08CE  1447 0093:08D3  1448 0093:08D5  1450 0093:08D8
  1451 0093:08DA  1452 0093:08DF  1454 0093:08E0  1455 0093:08E2
  1456 0093:08E7  1457 0093:08E9  1458 0093:08EB  1459 0093:08ED
  1460 0093:08EF  1461 0093:08F1  1462 0093:08F3  1463 0093:08F5
  1464 0093:08F8  1466 0093:08FA  1468 0093:08FC  1469 0093:08FD
  1470 0093:08FF  1471 0093:0901  1472 0093:0902  1473 0093:0904
  1475 0093:0906  1476 0093:0909  1477 0093:090A  1478 0093:090B
  1479 0093:090C  1480 0093:090D  1481 0093:090E  1482 0093:090F
  1483 0093:0910  1502 0093:0911  1503 0093:0913  1504 0093:0915
  1506 0093:0917  1507 0093:0918  1508 0093:0919  1509 0093:091A
  1510 0093:091B  1511 0093:091C  1513 0093:091D  1514 0093:0920
  1515 0093:0922  1516 0093:0924  1517 0093:0926  1518 0093:092B
  1519 0093:092D  1521 0093:0930  1522 0093:0931  1523 0093:0932
  1524 0093:0935  1525 0093:093A  1526 0093:093D  1527 0093:093F
  1528 0093:0941  1529 0093:0943  1531 0093:0946  1532 0093:0948
  1533 0093:094A  1534 0093:094D  1535 0093:094F  1536 0093:0951
  1538 0093:0954  1539 0093:0956  1540 0093:0958  1541 0093:095D
  1542 0093:095F  1544 0093:0962  1545 0093:0964  1546 0093:0969
  1547 0093:096C  1548 0093:096D  1550 0093:0970  1551 0093:0972
  1552 0093:0977  1554 0093:0978  1555 0093:097A  1556 0093:097C
  1557 0093:097E  1558 0093:0980  1559 0093:0982  1560 0093:0984
  1561 0093:0986  1563 0093:0989  1564 0093:098C  1565 0093:098E
  1566 0093:0990  1567 0093:0992  1568 0093:0994  1569 0093:0997
  1570 0093:0999  1572 0093:099B  1573 0093:099C  1574 0093:099E
  1575 0093:09A0  1577 0093:09A1  1578 0093:09A4  1579 0093:09A5
  1580 0093:09A6  1581 0093:09A7  1582 0093:09A8  1583 0093:09A9
  1584 0093:09AA  1585 0093:09AB  1598 0093:09AC  1600 0093:09B4
  1602 0093:09B6  1603 0093:09B9  1604 0093:09BE  1605 0093:09C1
  1606 0093:09C3  1607 0093:09C5  1608 0093:09C7  1610 0093:09CA
  1611 0093:09CC  1612 0093:09CF  1613 0093:09D1  1615 0093:09D4
  1616 0093:09D6  1617 0093:09D8  1618 0093:09DD  1619 0093:09DF
  1621 0093:09E2  1622 0093:09E4  1623 0093:09E9  1624 0093:09EC
  1625 0093:09ED  1627 0093:09F0  1628 0093:09F2  1629 0093:09F7
  1631 0093:09F8  1632 0093:09FA  1633 0093:09FC  1634 0093:09FE
  1635 0093:0A00  1636 0093:0A02  1637 0093:0A04  1638 0093:0A06
  1640 0093:0A09  1641 0093:0A0C  1642 0093:0A0E  1643 0093:0A10
  1644 0093:0A12  1645 0093:0A14  1646 0093:0A17  1647 0093:0A19
  1649 0093:0A1B  1650 0093:0A23  1662 0093:0A24  1664 0093:0A2C
  1666 0093:0A2E  1667 0093:0A31  1668 0093:0A36  1669 0093:0A39
  1670 0093:0A3B  1671 0093:0A3D  1672 0093:0A3F  1674 0093:0A42
  1675 0093:0A44  1676 0093:0A47  1677 0093:0A49  1679 0093:0A4C
  1680 0093:0A4E  1681 0093:0A50  1682 0093:0A55  1683 0093:0A57
  1685 0093:0A5A  1686 0093:0A5C  1687 0093:0A61  1688 0093:0A64
  1689 0093:0A65  1691 0093:0A68  1692 0093:0A6A  1693 0093:0A6F
  1695 0093:0A70  1696 0093:0A72  1697 0093:0A74  1698 0093:0A76
  1699 0093:0A78  1700 0093:0A7A  1701 0093:0A7C  1702 0093:0A7E
  1704 0093:0A81  1705 0093:0A84  1706 0093:0A86  1707 0093:0A88
  1708 0093:0A8A  1709 0093:0A8C  1710 0093:0A8F  1711 0093:0A91
  1713 0093:0A93  1714 0093:0A9B  1727 0093:0A9C  1728 0093:0A9D
  1729 0093:0A9E  1730 0093:0A9F
  1731 0093:0AA0  1732 0093:0AA1  1734 0093:0AA2  1735 0093:0AA4
  1737 0093:0AA6  1738 0093:0AA8  1739 0093:0AAA  1740 0093:0AAC
  1742 0093:0AAF  1743 0093:0AB0  1744 0093:0AB2  1745 0093:0AB7
  1746 0093:0AB9  1747 0093:0ABE  1748 0093:0AC0  1749 0093:0AC5
  1750 0093:0AC7  1751 0093:0AC9  1752 0093:0ACB  1753 0093:0ACD
  1754 0093:0ACF  1755 0093:0AD1  1756 0093:0AD3  1757 0093:0AD5
  1758 0093:0AD7  1759 0093:0AD9  1760 0093:0ADB  1761 0093:0ADD
  1762 0093:0AE0  1765 0093:0AE2  1767 0093:0AE4  1768 0093:0AE5
  1771 0093:0AE8  1774 0093:0AE9  1775 0093:0AEA  1776 0093:0AEB
  1777 0093:0AEC  1778 0093:0AED  1779 0093:0AEE  1781 0093:0AEF
Program entry point at 0000:0000

